target datalayout = "e-m:e-p270:32:32-p271:32:32-p272:64:64-i64:64-i128:128-f80:128-n8:16:32:64-S128"
target triple = "x86_64-pc-linux-gnu"

%struct.CeltFrame = type { ptr, [4 x ptr], [4 x ptr], ptr, [2 x %struct.CeltBlock], ptr, %struct.OpusDSP, i32, i32, i32, i32, i32, i32, i32, i32, i32, i32, i32, i32, [21 x i32], i32, i32, i32, i32, i32, i32, i32, i32, i32, i32, i32, i32, i32, float, i32, i32, i32, [21 x i32], [21 x i32], [21 x i32], [21 x i32], [21 x i32], [12 x i8] }
%struct.CeltBlock = type { [21 x float], [21 x float], [21 x float], [2 x [21 x float]], [21 x i8], [7 x i8], [2048 x float], [960 x float], [128 x float], [960 x float], i32, [3 x float], i32, [3 x float], i32, [3 x float], float, [12 x i8] }
%struct.OpusDSP = type { ptr, ptr }

@ff_opus_deemph_weights = external hidden constant [0 x float], align 4

; Function Attrs: nounwind uwtable
define void @ff_celt_flush(ptr noundef %0) #0 {
  %2 = alloca ptr, align 8
  %3 = alloca i32, align 4
  %4 = alloca i32, align 4
  %5 = alloca i32, align 4
  %6 = alloca ptr, align 8
  store ptr %0, ptr %2, align 8, !tbaa !4
  call void @llvm.lifetime.start.p0(i64 4, ptr %3) #8
  call void @llvm.lifetime.start.p0(i64 4, ptr %4) #8
  %7 = load ptr, ptr %2, align 8, !tbaa !4
  %8 = getelementptr inbounds nuw %struct.CeltFrame, ptr %7, i32 0, i32 27
  %9 = load i32, ptr %8, align 8, !tbaa !26
  %10 = icmp ne i32 %9, 0
  br i1 %10, label %11, label %12

11:                                               ; preds = %1
  store i32 1, ptr %5, align 4
  br label %69

12:                                               ; preds = %1
  store i32 0, ptr %3, align 4, !tbaa !14
  br label %13

13:                                               ; preds = %61, %12
  %14 = load i32, ptr %3, align 4, !tbaa !14
  %15 = icmp slt i32 %14, 2
  br i1 %15, label %16, label %64

16:                                               ; preds = %13
  call void @llvm.lifetime.start.p0(i64 8, ptr %6) #8
  %17 = load ptr, ptr %2, align 8, !tbaa !4
  %18 = getelementptr inbounds nuw %struct.CeltFrame, ptr %17, i32 0, i32 4
  %19 = load i32, ptr %3, align 4, !tbaa !14
  %20 = sext i32 %19 to i64
  %21 = getelementptr inbounds [2 x %struct.CeltBlock], ptr %18, i64 0, i64 %20
  store ptr %21, ptr %6, align 8, !tbaa !49
  store i32 0, ptr %4, align 4, !tbaa !14
  br label %22

22:                                               ; preds = %38, %16
  %23 = load i32, ptr %4, align 4, !tbaa !14
  %24 = icmp slt i32 %23, 21
  br i1 %24, label %25, label %41

25:                                               ; preds = %22
  %26 = load ptr, ptr %6, align 8, !tbaa !49
  %27 = getelementptr inbounds nuw %struct.CeltBlock, ptr %26, i32 0, i32 3
  %28 = getelementptr inbounds [2 x [21 x float]], ptr %27, i64 0, i64 1
  %29 = load i32, ptr %4, align 4, !tbaa !14
  %30 = sext i32 %29 to i64
  %31 = getelementptr inbounds [21 x float], ptr %28, i64 0, i64 %30
  store float -2.800000e+01, ptr %31, align 4, !tbaa !46
  %32 = load ptr, ptr %6, align 8, !tbaa !49
  %33 = getelementptr inbounds nuw %struct.CeltBlock, ptr %32, i32 0, i32 3
  %34 = getelementptr inbounds [2 x [21 x float]], ptr %33, i64 0, i64 0
  %35 = load i32, ptr %4, align 4, !tbaa !14
  %36 = sext i32 %35 to i64
  %37 = getelementptr inbounds [21 x float], ptr %34, i64 0, i64 %36
  store float -2.800000e+01, ptr %37, align 4, !tbaa !46
  br label %38

38:                                               ; preds = %25
  %39 = load i32, ptr %4, align 4, !tbaa !14
  %40 = add nsw i32 %39, 1
  store i32 %40, ptr %4, align 4, !tbaa !14
  br label %22, !llvm.loop !93

41:                                               ; preds = %22
  %42 = load ptr, ptr %6, align 8, !tbaa !49
  %43 = getelementptr inbounds nuw %struct.CeltBlock, ptr %42, i32 0, i32 0
  %44 = getelementptr inbounds [21 x float], ptr %43, i64 0, i64 0
  call void @llvm.memset.p0.i64(ptr align 16 %44, i8 0, i64 84, i1 false)
  %45 = load ptr, ptr %6, align 8, !tbaa !49
  %46 = getelementptr inbounds nuw %struct.CeltBlock, ptr %45, i32 0, i32 6
  %47 = getelementptr inbounds [2048 x float], ptr %46, i64 0, i64 0
  call void @llvm.memset.p0.i64(ptr align 16 %47, i8 0, i64 8192, i1 false)
  %48 = load ptr, ptr %6, align 8, !tbaa !49
  %49 = getelementptr inbounds nuw %struct.CeltBlock, ptr %48, i32 0, i32 13
  %50 = getelementptr inbounds [3 x float], ptr %49, i64 0, i64 0
  call void @llvm.memset.p0.i64(ptr align 4 %50, i8 0, i64 12, i1 false)
  %51 = load ptr, ptr %6, align 8, !tbaa !49
  %52 = getelementptr inbounds nuw %struct.CeltBlock, ptr %51, i32 0, i32 15
  %53 = getelementptr inbounds [3 x float], ptr %52, i64 0, i64 0
  call void @llvm.memset.p0.i64(ptr align 4 %53, i8 0, i64 12, i1 false)
  %54 = load ptr, ptr %6, align 8, !tbaa !49
  %55 = getelementptr inbounds nuw %struct.CeltBlock, ptr %54, i32 0, i32 11
  %56 = getelementptr inbounds [3 x float], ptr %55, i64 0, i64 0
  call void @llvm.memset.p0.i64(ptr align 4 %56, i8 0, i64 12, i1 false)
  %57 = load float, ptr @ff_opus_deemph_weights, align 4, !tbaa !46
  %58 = fdiv nsz float 0.000000e+00, %57
  %59 = load ptr, ptr %6, align 8, !tbaa !49
  %60 = getelementptr inbounds nuw %struct.CeltBlock, ptr %59, i32 0, i32 16
  store float %58, ptr %60, align 16, !tbaa !63
  call void @llvm.lifetime.end.p0(i64 8, ptr %6) #8
  br label %61

61:                                               ; preds = %41
  %62 = load i32, ptr %3, align 4, !tbaa !14
  %63 = add nsw i32 %62, 1
  store i32 %63, ptr %3, align 4, !tbaa !14
  br label %13, !llvm.loop !94

64:                                               ; preds = %13
  %65 = load ptr, ptr %2, align 8, !tbaa !4
  %66 = getelementptr inbounds nuw %struct.CeltFrame, ptr %65, i32 0, i32 28
  store i32 0, ptr %66, align 4, !tbaa !71
  %67 = load ptr, ptr %2, align 8, !tbaa !4
  %68 = getelementptr inbounds nuw %struct.CeltFrame, ptr %67, i32 0, i32 27
  store i32 1, ptr %68, align 8, !tbaa !26
  store i32 0, ptr %5, align 4
  br label %69

69:                                               ; preds = %64, %11
  call void @llvm.lifetime.end.p0(i64 4, ptr %4) #8
  call void @llvm.lifetime.end.p0(i64 4, ptr %3) #8
  %70 = load i32, ptr %5, align 4
  switch i32 %70, label %72 [
    i32 0, label %71
    i32 1, label %71
  ]

71:                                               ; preds = %69, %69
  ret void

72:                                               ; preds = %69
  unreachable
}