; Function Attrs: nofree norecurse nosync nounwind memory(argmem: readwrite) uwtable
define void @ff_celt_flush(ptr noundef captures(none) %0) local_unnamed_addr #5 {
  %2 = getelementptr inbounds nuw i8, ptr %0, i64 34056
  %3 = load i32, ptr %2, align 8, !tbaa !18
  %.not = icmp eq i32 %3, 0
  br i1 %.not, label %.preheader, label %23

.preheader:                                       ; preds = %1
  %4 = getelementptr inbounds nuw i8, ptr %0, i64 80
  %5 = load float, ptr @ff_opus_deemph_weights, align 4, !tbaa !35
  %6 = fdiv nsz float 0.000000e+00, %5
  br label %7

7:                                                ; preds = %.preheader, %15
  %8 = phi i1 [ true, %.preheader ], [ false, %15 ]
  %indvars.iv22 = phi i64 [ 0, %.preheader ], [ 1, %15 ]
  %9 = getelementptr inbounds nuw [2 x %struct.CeltBlock], ptr %4, i64 0, i64 %indvars.iv22
  %10 = getelementptr inbounds nuw i8, ptr %9, i64 252
  %11 = getelementptr inbounds nuw i8, ptr %9, i64 336
  br label %12

12:                                               ; preds = %7, %12
  %indvars.iv = phi i64 [ 0, %7 ], [ %indvars.iv.next, %12 ]
  %13 = getelementptr inbounds nuw [21 x float], ptr %11, i64 0, i64 %indvars.iv
  store float -2.800000e+01, ptr %13, align 4, !tbaa !35
  %14 = getelementptr inbounds nuw [21 x float], ptr %10, i64 0, i64 %indvars.iv
  store float -2.800000e+01, ptr %14, align 4, !tbaa !35
  %indvars.iv.next = add nuw nsw i64 %indvars.iv, 1
  %exitcond.not = icmp eq i64 %indvars.iv.next, 21
  br i1 %exitcond.not, label %15, label %12, !llvm.loop !86

15:                                               ; preds = %12
  tail call void @llvm.memset.p0.i64(ptr noundef nonnull align 16 dereferenceable(84) %9, i8 0, i64 84, i1 false)
  %16 = getelementptr inbounds nuw i8, ptr %9, i64 448
  tail call void @llvm.memset.p0.i64(ptr noundef nonnull align 16 dereferenceable(8192) %16, i8 0, i64 8192, i1 false)
  %17 = getelementptr inbounds nuw i8, ptr %9, i64 16852
  tail call void @llvm.memset.p0.i64(ptr noundef nonnull align 4 dereferenceable(12) %17, i8 0, i64 12, i1 false)
  %18 = getelementptr inbounds nuw i8, ptr %9, i64 16868
  tail call void @llvm.memset.p0.i64(ptr noundef nonnull align 4 dereferenceable(12) %18, i8 0, i64 12, i1 false)
  %19 = getelementptr inbounds nuw i8, ptr %9, i64 16836
  tail call void @llvm.memset.p0.i64(ptr noundef nonnull align 4 dereferenceable(12) %19, i8 0, i64 12, i1 false)
  %20 = getelementptr inbounds nuw i8, ptr %9, i64 16880
  store float %6, ptr %20, align 16, !tbaa !80
  br i1 %8, label %7, label %21, !llvm.loop !87

21:                                               ; preds = %15
  %22 = getelementptr inbounds nuw i8, ptr %0, i64 34060
  store i32 0, ptr %22, align 4, !tbaa !59
  store i32 1, ptr %2, align 8, !tbaa !18
  br label %23

23:                                               ; preds = %1, %21
  ret void
}